target datalayout = "e-m:e-p270:32:32-p271:32:32-p272:64:64-i64:64-i128:128-f80:128-n8:16:32:64-S128"
target triple = "x86_64-pc-linux-gnu"

%struct.location = type { i32, i32 }
%struct.block = type { ptr, ptr }
%struct.inst = type { ptr, ptr, i32, %struct.anon, ptr, %struct.location, ptr, ptr, i32, i32, i32, i32, %struct.block, %struct.block, ptr, i32 }
%struct.anon = type { i16, ptr, %struct.jv, ptr }
%struct.jv = type { i8, i8, i16, i32, %union.anon }
%union.anon = type { ptr }
%struct.opcode_description = type { i32, ptr, i32, i32, i32, i32 }

; Function Attrs: nounwind uwtable
define dso_local i32 @block_has_only_binders(ptr %0, ptr %1, i32 noundef %2) #0 {
  %4 = alloca i32, align 4
  %5 = alloca %struct.block, align 8
  %6 = alloca i32, align 4
  %7 = alloca ptr, align 8
  %8 = alloca i32, align 4
  %9 = getelementptr inbounds nuw { ptr, ptr }, ptr %5, i32 0, i32 0
  store ptr %0, ptr %9, align 8
  %10 = getelementptr inbounds nuw { ptr, ptr }, ptr %5, i32 0, i32 1
  store ptr %1, ptr %10, align 8
  store i32 %2, ptr %6, align 4, !tbaa !26
  %11 = load i32, ptr %6, align 4, !tbaa !26
  %12 = or i32 %11, 1024
  store i32 %12, ptr %6, align 4, !tbaa !26
  %13 = load i32, ptr %6, align 4, !tbaa !26
  %14 = and i32 %13, -2049
  store i32 %14, ptr %6, align 4, !tbaa !26
  call void @llvm.lifetime.start.p0(i64 8, ptr %7) #7
  %15 = getelementptr inbounds nuw %struct.block, ptr %5, i32 0, i32 0
  %16 = load ptr, ptr %15, align 8, !tbaa !4
  store ptr %16, ptr %7, align 8, !tbaa !13
  br label %17

17:                                               ; preds = %39, %3
  %18 = load ptr, ptr %7, align 8, !tbaa !13
  %19 = icmp ne ptr %18, null
  br i1 %19, label %21, label %20

20:                                               ; preds = %17
  store i32 2, ptr %8, align 4
  br label %43

21:                                               ; preds = %17
  %22 = load ptr, ptr %7, align 8, !tbaa !13
  %23 = getelementptr inbounds nuw %struct.inst, ptr %22, i32 0, i32 2
  %24 = load i32, ptr %23, align 8, !tbaa !33
  %25 = call ptr @opcode_describe(i32 noundef %24)
  %26 = getelementptr inbounds nuw %struct.opcode_description, ptr %25, i32 0, i32 2
  %27 = load i32, ptr %26, align 8, !tbaa !48
  %28 = load i32, ptr %6, align 4, !tbaa !26
  %29 = and i32 %27, %28
  %30 = load i32, ptr %6, align 4, !tbaa !26
  %31 = icmp ne i32 %29, %30
  br i1 %31, label %32, label %38

32:                                               ; preds = %21
  %33 = load ptr, ptr %7, align 8, !tbaa !13
  %34 = getelementptr inbounds nuw %struct.inst, ptr %33, i32 0, i32 2
  %35 = load i32, ptr %34, align 8, !tbaa !33
  %36 = icmp ne i32 %35, 38
  br i1 %36, label %37, label %38

37:                                               ; preds = %32
  store i32 0, ptr %4, align 4
  store i32 1, ptr %8, align 4
  br label %43

38:                                               ; preds = %32, %21
  br label %39

39:                                               ; preds = %38
  %40 = load ptr, ptr %7, align 8, !tbaa !13
  %41 = getelementptr inbounds nuw %struct.inst, ptr %40, i32 0, i32 0
  %42 = load ptr, ptr %41, align 8, !tbaa !28
  store ptr %42, ptr %7, align 8, !tbaa !13
  br label %17, !llvm.loop !51

43:                                               ; preds = %37, %20
  call void @llvm.lifetime.end.p0(i64 8, ptr %7) #7
  %44 = load i32, ptr %8, align 4
  switch i32 %44, label %48 [
    i32 2, label %45
    i32 1, label %46
  ]

45:                                               ; preds = %43
  store i32 1, ptr %4, align 4
  br label %46

46:                                               ; preds = %45, %43
  %47 = load i32, ptr %4, align 4
  ret i32 %47

48:                                               ; preds = %43
  unreachable
}