; Function Attrs: nounwind uwtable
define dso_local range(i32 0, 2) i32 @block_has_only_binders(ptr readonly captures(address_is_null) %0, ptr readnone captures(none) %1, i32 noundef %2) local_unnamed_addr #1 {
  %4 = and i32 %2, -3073
  %5 = or disjoint i32 %4, 1024
  %.not13 = icmp eq ptr %0, null
  br i1 %.not13, label %._crit_edge, label %.lr.ph

.lr.ph:                                           ; preds = %3, %14
  %.0914 = phi ptr [ %15, %14 ], [ %0, %3 ]
  %6 = getelementptr inbounds nuw i8, ptr %.0914, i64 16
  %7 = load i32, ptr %6, align 8, !tbaa !25
  %8 = tail call ptr @opcode_describe(i32 noundef %7) #17
  %9 = getelementptr inbounds nuw i8, ptr %8, i64 16
  %10 = load i32, ptr %9, align 8, !tbaa !38
  %11 = and i32 %10, %5
  %.not11 = icmp eq i32 %11, %5
  br i1 %.not11, label %14, label %12

12:                                               ; preds = %.lr.ph
  %13 = load i32, ptr %6, align 8, !tbaa !25
  %.not12 = icmp eq i32 %13, 38
  br i1 %.not12, label %14, label %._crit_edge

14:                                               ; preds = %.lr.ph, %12
  %15 = load ptr, ptr %.0914, align 8, !tbaa !22
  %.not = icmp eq ptr %15, null
  br i1 %.not, label %._crit_edge, label %.lr.ph, !llvm.loop !41

._crit_edge:                                      ; preds = %14, %12, %3
  %.not.lcssa = phi i32 [ 1, %3 ], [ 0, %12 ], [ 1, %14 ]
  ret i32 %.not.lcssa
}